; ModuleID = '30/2209.c'
source_filename = "30/2209.c"
target datalayout = "e-m:e-p270:32:32-p271:32:32-p272:64:64-i64:64-f80:128-n8:16:32:64-S128"
target triple = "x86_64-pc-linux-gnu"

@.str = private unnamed_addr constant [3 x i8] c"%d\00", align 1
@.str.1 = private unnamed_addr constant [4 x i8] c"%d\0A\00", align 1

; Function Attrs: noinline nounwind uwtable
define dso_local i32 @main() #0 {
  %1 = alloca i32, align 4
  %2 = alloca i32, align 4
  %3 = alloca i32, align 4
  %4 = alloca i32, align 4
  %5 = alloca i32, align 4
  %6 = alloca i32, align 4
  store i32 0, i32* %1, align 4
  store i32 0, i32* %6, align 4
  %7 = call i32 (i8*, ...) @__isoc99_scanf(i8* getelementptr inbounds ([3 x i8], [3 x i8]* @.str, i64 0, i64 0), i32* %4)
  store i32 0, i32* %2, align 4
  br label %8

8:                                                ; preds = %47, %0
  %9 = load i32, i32* %2, align 4
  %10 = icmp sle i32 %9, 9
  br i1 %10, label %11, label %50

11:                                               ; preds = %8
  %12 = load i32, i32* %2, align 4
  %13 = icmp eq i32 %12, 7
  br i1 %13, label %14, label %15

14:                                               ; preds = %11
  br label %47

15:                                               ; preds = %11
  store i32 0, i32* %3, align 4
  br label %16

16:                                               ; preds = %43, %15
  %17 = load i32, i32* %3, align 4
  %18 = icmp sle i32 %17, 9
  br i1 %18, label %19, label %46

19:                                               ; preds = %16
  %20 = load i32, i32* %3, align 4
  %21 = icmp eq i32 %20, 7
  br i1 %21, label %22, label %23

22:                                               ; preds = %19
  br label %43

23:                                               ; preds = %19
  %24 = load i32, i32* %2, align 4
  %25 = mul nsw i32 %24, 10
  %26 = load i32, i32* %3, align 4
  %27 = add nsw i32 %25, %26
  store i32 %27, i32* %5, align 4
  %28 = load i32, i32* %5, align 4
  %29 = srem i32 %28, 7
  %30 = icmp eq i32 %29, 0
  br i1 %30, label %31, label %32

31:                                               ; preds = %23
  br label %43

32:                                               ; preds = %23
  %33 = load i32, i32* %5, align 4
  %34 = load i32, i32* %4, align 4
  %35 = icmp sgt i32 %33, %34
  br i1 %35, label %36, label %37

36:                                               ; preds = %32
  br label %46

37:                                               ; preds = %32
  %38 = load i32, i32* %5, align 4
  %39 = load i32, i32* %5, align 4
  %40 = mul nsw i32 %38, %39
  %41 = load i32, i32* %6, align 4
  %42 = add nsw i32 %41, %40
  store i32 %42, i32* %6, align 4
  br label %43

43:                                               ; preds = %37, %31, %22
  %44 = load i32, i32* %3, align 4
  %45 = add nsw i32 %44, 1
  store i32 %45, i32* %3, align 4
  br label %16

46:                                               ; preds = %36, %16
  br label %47

47:                                               ; preds = %46, %14
  %48 = load i32, i32* %2, align 4
  %49 = add nsw i32 %48, 1
  store i32 %49, i32* %2, align 4
  br label %8

50:                                               ; preds = %8
  %51 = load i32, i32* %6, align 4
  %52 = call i32 (i8*, ...) @printf(i8* getelementptr inbounds ([4 x i8], [4 x i8]* @.str.1, i64 0, i64 0), i32 %51)
  ret i32 0
}

declare dso_local i32 @__isoc99_scanf(i8*, ...) #1

declare dso_local i32 @printf(i8*, ...) #1


!llvm.module.flags = !{!0}
!llvm.ident = !{!1}

!0 = !{i32 1, !"wchar_size", i32 4}
!1 = !{!"clang version 10.0.0-4ubuntu1 "}
